target datalayout = "e-m:e-p270:32:32-p271:32:32-p272:64:64-i64:64-i128:128-f80:128-n8:16:32:64-S128"
target triple = "x86_64-unknown-linux-gnu"

%union.UElement = type { ptr }

; Function Attrs: mustprogress uwtable
define noundef signext i8 @_ZN6icu_7513MessageFormat12equalFormatsEPKvS2_(ptr noundef %left, ptr noundef %right) #1 align 2 {
entry:
  %left.addr = alloca ptr, align 8
  %right.addr = alloca ptr, align 8
  store ptr %left, ptr %left.addr, align 8
  store ptr %right, ptr %right.addr, align 8
  %0 = load ptr, ptr %left.addr, align 8
  %1 = load ptr, ptr %right.addr, align 8
  %vtable = load ptr, ptr %0, align 8
  %vfn = getelementptr inbounds ptr, ptr %vtable, i64 3
  %2 = load ptr, ptr %vfn, align 8
  %call = call noundef zeroext i1 %2(ptr noundef nonnull align 8 dereferenceable(322) %0, ptr noundef nonnull align 8 dereferenceable(322) %1)
  %conv = zext i1 %call to i8
  ret i8 %conv
}

; Function Attrs: mustprogress uwtable
define internal noundef signext i8 @_ZL19equalFormatsForHash8UElementS_(ptr %key1.coerce, ptr %key2.coerce) #1 {
entry:
  %key1 = alloca %union.UElement, align 8
  %key2 = alloca %union.UElement, align 8
  %coerce.dive = getelementptr inbounds %union.UElement, ptr %key1, i32 0, i32 0
  store ptr %key1.coerce, ptr %coerce.dive, align 8
  %coerce.dive1 = getelementptr inbounds %union.UElement, ptr %key2, i32 0, i32 0
  store ptr %key2.coerce, ptr %coerce.dive1, align 8
  %0 = load ptr, ptr %key1, align 8
  %1 = load ptr, ptr %key2, align 8
  %call = call noundef signext i8 @_ZN6icu_7513MessageFormat12equalFormatsEPKvS2_(ptr noundef %0, ptr noundef %1)
  ret i8 %call
}