; Function Attrs: mustprogress uwtable
define internal noundef signext i8 @_ZL19equalFormatsForHash8UElementS_(ptr %key1.coerce, ptr %key2.coerce) #1 {
entry:
  %vtable.i = load ptr, ptr %key1.coerce, align 8
  %vfn.i = getelementptr inbounds i8, ptr %vtable.i, i64 24
  %0 = load ptr, ptr %vfn.i, align 8
  %call.i = tail call noundef zeroext i1 %0(ptr noundef nonnull align 8 dereferenceable(322) %key1.coerce, ptr noundef nonnull align 8 dereferenceable(322) %key2.coerce)
  %conv.i = zext i1 %call.i to i8
  ret i8 %conv.i
}